; Function Attrs: mustprogress uwtable
define void @_ZN24SaveMeshAttributesDialog35on_saveTextureCheckBox_stateChangedEi(ptr nocapture noundef nonnull readonly align 8 dereferenceable(144) %0, i32 noundef %1) local_unnamed_addr #9 align 2 {
  %3 = getelementptr inbounds i8, ptr %0, i64 48
  %4 = load ptr, ptr %3, align 8
  %5 = getelementptr inbounds i8, ptr %4, i64 248
  %6 = load ptr, ptr %5, align 8
  %7 = icmp eq i32 %1, 2
  tail call void @_ZN7QWidget10setEnabledEb(ptr noundef nonnull align 8 dereferenceable(48) %6, i1 noundef zeroext %7)
  %8 = load ptr, ptr %3, align 8
  %9 = getelementptr inbounds i8, ptr %8, i64 240
  %10 = load ptr, ptr %9, align 8
  tail call void @_ZN7QWidget10setEnabledEb(ptr noundef nonnull align 8 dereferenceable(48) %10, i1 noundef zeroext %7)
  ret void
}